target datalayout = "e-m:e-p270:32:32-p271:32:32-p272:64:64-i64:64-i128:128-f80:128-n8:16:32:64-S128"
target triple = "x86_64-pc-linux-gnu"

%struct.rb_data_type_struct = type { ptr, %struct.anon, ptr, ptr, i64 }
%struct.anon = type { ptr, ptr, ptr, ptr, [1 x ptr] }
%struct.RTypedData = type { %struct.RBasic, ptr, i64, ptr }
%struct.RBasic = type { i64, i64 }

@cBN = global i64 0, align 8
@ossl_bn_type = internal constant %struct.rb_data_type_struct { ptr @.str.62, %struct.anon { ptr null, ptr @ossl_bn_free, ptr null, ptr null, [1 x ptr] zeroinitializer }, ptr null, ptr null, i64 289 }, align 8
@eBNError = internal global i64 0, align 8
@rb_eRuntimeError = external global i64, align 8
@.str = private unnamed_addr constant [23 x i8] c"BN wasn't initialized!\00", align 1
@.str.68 = private unnamed_addr constant [7 x i8] c"BN_dup\00", align 1

; Function Attrs: nounwind sspstrong uwtable
define internal i64 @ossl_bn_uplus(i64 noundef %0) #0 {
  %2 = alloca i64, align 8
  %3 = alloca i64, align 8
  %4 = alloca ptr, align 8
  %5 = alloca ptr, align 8
  store i64 %0, ptr %2, align 8, !tbaa !11
  call void @llvm.lifetime.start.p0(i64 8, ptr %3) #20
  call void @llvm.lifetime.start.p0(i64 8, ptr %4) #20
  call void @llvm.lifetime.start.p0(i64 8, ptr %5) #20
  br label %6

6:                                                ; preds = %1
  %7 = load i64, ptr %2, align 8, !tbaa !11
  %8 = call ptr @rb_check_typeddata(i64 noundef %7, ptr noundef @ossl_bn_type)
  store ptr %8, ptr %4, align 8, !tbaa !6
  %9 = load ptr, ptr %4, align 8, !tbaa !6
  %10 = icmp ne ptr %9, null
  br i1 %10, label %13, label %11

11:                                               ; preds = %6
  %12 = load i64, ptr @rb_eRuntimeError, align 8, !tbaa !11
  call void (i64, ptr, ...) @ossl_raise(i64 noundef %12, ptr noundef @.str) #21
  unreachable

13:                                               ; preds = %6
  br label %14

14:                                               ; preds = %13
  br label %15

15:                                               ; preds = %14
  %16 = load i64, ptr @cBN, align 8, !tbaa !11
  %17 = call i64 @rb_data_typed_object_wrap(i64 noundef %16, ptr noundef null, ptr noundef @ossl_bn_type)
  store i64 %17, ptr %3, align 8, !tbaa !11
  %18 = load ptr, ptr %4, align 8, !tbaa !6
  %19 = call ptr @BN_dup(ptr noundef %18)
  store ptr %19, ptr %5, align 8, !tbaa !6
  %20 = load ptr, ptr %5, align 8, !tbaa !6
  %21 = icmp ne ptr %20, null
  br i1 %21, label %24, label %22

22:                                               ; preds = %15
  %23 = load i64, ptr @eBNError, align 8, !tbaa !11
  call void (i64, ptr, ...) @ossl_raise(i64 noundef %23, ptr noundef @.str.68) #21
  unreachable

24:                                               ; preds = %15
  br label %25

25:                                               ; preds = %24
  %26 = load ptr, ptr %5, align 8, !tbaa !6
  %27 = icmp ne ptr %26, null
  br i1 %27, label %30, label %28

28:                                               ; preds = %25
  %29 = load i64, ptr @rb_eRuntimeError, align 8, !tbaa !11
  call void (i64, ptr, ...) @ossl_raise(i64 noundef %29, ptr noundef @.str) #21
  unreachable

30:                                               ; preds = %25
  %31 = load ptr, ptr %5, align 8, !tbaa !6
  %32 = load i64, ptr %3, align 8, !tbaa !11
  %33 = inttoptr i64 %32 to ptr
  %34 = getelementptr inbounds nuw %struct.RTypedData, ptr %33, i32 0, i32 3
  store ptr %31, ptr %34, align 8, !tbaa !13
  br label %35

35:                                               ; preds = %30
  br label %36

36:                                               ; preds = %35
  %37 = load i64, ptr %3, align 8, !tbaa !11
  call void @llvm.lifetime.end.p0(i64 8, ptr %5) #20
  call void @llvm.lifetime.end.p0(i64 8, ptr %4) #20
  call void @llvm.lifetime.end.p0(i64 8, ptr %3) #20
  ret i64 %37
}